; ModuleID = 'bench/libcxx/original/print.ll'
source_filename = "bench/libcxx/original/print.ll"
target datalayout = "e-m:e-p270:32:32-p271:32:32-p272:64:64-i64:64-i128:128-f80:128-n8:16:32:64-S128"
target triple = "x86_64-pc-linux-gnu"

; Function Attrs: mustprogress nounwind uwtable
define dso_local noundef zeroext i1 @_ZNSt3__119__is_posix_terminalEP8_IO_FILE(ptr noundef captures(none) %0) local_unnamed_addr #0 {
  %2 = tail call i32 @fileno(ptr noundef %0) #3
  %3 = tail call i32 @isatty(i32 noundef %2) #3
  %4 = icmp ne i32 %3, 0
  ret i1 %4
}

; Function Attrs: nounwind
declare i32 @isatty(i32 noundef) local_unnamed_addr #1

; Function Attrs: nofree nounwind
declare noundef i32 @fileno(ptr noundef captures(none)) local_unnamed_addr #2


!llvm.linker.options = !{}
!llvm.module.flags = !{!0, !1, !2, !3}

!0 = !{i32 1, !"wchar_size", i32 4}
!1 = !{i32 8, !"PIC Level", i32 2}
!2 = !{i32 7, !"PIE Level", i32 2}
!3 = !{i32 7, !"uwtable", i32 2}
